target datalayout = "e-m:e-p270:32:32-p271:32:32-p272:64:64-i64:64-i128:128-f80:128-n8:16:32:64-S128"
target triple = "x86_64-pc-linux-gnu"

%struct.expert_field = type { i32, i32 }

@hf_alcap_vbwt_peak_br_fw = internal global i32 0, align 4
@hf_alcap_vbwt_peak_br_bw = internal global i32 0, align 4
@hf_alcap_vbwt_peak_bucket_fw = internal global i32 0, align 4
@hf_alcap_vbwt_peak_bucket_bw = internal global i32 0, align 4
@hf_alcap_vbwt_sust_br_fw = internal global i32 0, align 4
@hf_alcap_vbwt_sust_br_bw = internal global i32 0, align 4
@hf_alcap_vbwt_sust_bucket_fw = internal global i32 0, align 4
@hf_alcap_vbwt_sust_bucket_bw = internal global i32 0, align 4
@hf_alcap_vbwt_size_fw = internal global i32 0, align 4
@hf_alcap_vbwt_size_bw = internal global i32 0, align 4
@ei_alcap_parameter_field_bad_length = internal global %struct.expert_field zeroinitializer, align 4

; Function Attrs: null_pointer_is_valid sspstrong uwtable
define internal ptr @dissect_fields_vbwt(ptr noundef %0, ptr noundef %1, ptr noundef %2, i32 noundef %3, i32 noundef %4, ptr noundef %5) #0 {
  %7 = alloca ptr, align 8
  %8 = alloca ptr, align 8
  %9 = alloca ptr, align 8
  %10 = alloca ptr, align 8
  %11 = alloca i32, align 4
  %12 = alloca i32, align 4
  %13 = alloca ptr, align 8
  store ptr %0, ptr %8, align 8
  store ptr %1, ptr %9, align 8
  store ptr %2, ptr %10, align 8
  store i32 %3, ptr %11, align 4
  store i32 %4, ptr %12, align 4
  store ptr %5, ptr %13, align 8
  %14 = load i32, ptr %12, align 4
  %15 = icmp ne i32 %14, 22
  br i1 %15, label %16, label %23

16:                                               ; preds = %6
  %17 = load ptr, ptr %10, align 8
  %18 = load ptr, ptr %8, align 8
  %19 = load ptr, ptr %9, align 8
  %20 = load i32, ptr %11, align 4
  %21 = load i32, ptr %12, align 4
  %22 = call ptr @proto_tree_add_expert(ptr noundef %17, ptr noundef %18, ptr noundef @ei_alcap_parameter_field_bad_length, ptr noundef %19, i32 noundef %20, i32 noundef %21)
  store ptr null, ptr %7, align 8
  br label %83

23:                                               ; preds = %6
  %24 = load ptr, ptr %10, align 8
  %25 = load i32, ptr @hf_alcap_vbwt_peak_br_fw, align 4
  %26 = load ptr, ptr %9, align 8
  %27 = load i32, ptr %11, align 4
  %28 = call ptr @proto_tree_add_item(ptr noundef %24, i32 noundef %25, ptr noundef %26, i32 noundef %27, i32 noundef 3, i32 noundef 0)
  %29 = load ptr, ptr %10, align 8
  %30 = load i32, ptr @hf_alcap_vbwt_peak_br_bw, align 4
  %31 = load ptr, ptr %9, align 8
  %32 = load i32, ptr %11, align 4
  %33 = add i32 %32, 3
  %34 = call ptr @proto_tree_add_item(ptr noundef %29, i32 noundef %30, ptr noundef %31, i32 noundef %33, i32 noundef 3, i32 noundef 0)
  %35 = load ptr, ptr %10, align 8
  %36 = load i32, ptr @hf_alcap_vbwt_peak_bucket_fw, align 4
  %37 = load ptr, ptr %9, align 8
  %38 = load i32, ptr %11, align 4
  %39 = add i32 %38, 6
  %40 = call ptr @proto_tree_add_item(ptr noundef %35, i32 noundef %36, ptr noundef %37, i32 noundef %39, i32 noundef 2, i32 noundef 0)
  %41 = load ptr, ptr %10, align 8
  %42 = load i32, ptr @hf_alcap_vbwt_peak_bucket_bw, align 4
  %43 = load ptr, ptr %9, align 8
  %44 = load i32, ptr %11, align 4
  %45 = add i32 %44, 8
  %46 = call ptr @proto_tree_add_item(ptr noundef %41, i32 noundef %42, ptr noundef %43, i32 noundef %45, i32 noundef 2, i32 noundef 0)
  %47 = load ptr, ptr %10, align 8
  %48 = load i32, ptr @hf_alcap_vbwt_sust_br_fw, align 4
  %49 = load ptr, ptr %9, align 8
  %50 = load i32, ptr %11, align 4
  %51 = add i32 %50, 10
  %52 = call ptr @proto_tree_add_item(ptr noundef %47, i32 noundef %48, ptr noundef %49, i32 noundef %51, i32 noundef 3, i32 noundef 0)
  %53 = load ptr, ptr %10, align 8
  %54 = load i32, ptr @hf_alcap_vbwt_sust_br_bw, align 4
  %55 = load ptr, ptr %9, align 8
  %56 = load i32, ptr %11, align 4
  %57 = add i32 %56, 13
  %58 = call ptr @proto_tree_add_item(ptr noundef %53, i32 noundef %54, ptr noundef %55, i32 noundef %57, i32 noundef 3, i32 noundef 0)
  %59 = load ptr, ptr %10, align 8
  %60 = load i32, ptr @hf_alcap_vbwt_sust_bucket_fw, align 4
  %61 = load ptr, ptr %9, align 8
  %62 = load i32, ptr %11, align 4
  %63 = add i32 %62, 16
  %64 = call ptr @proto_tree_add_item(ptr noundef %59, i32 noundef %60, ptr noundef %61, i32 noundef %63, i32 noundef 2, i32 noundef 0)
  %65 = load ptr, ptr %10, align 8
  %66 = load i32, ptr @hf_alcap_vbwt_sust_bucket_bw, align 4
  %67 = load ptr, ptr %9, align 8
  %68 = load i32, ptr %11, align 4
  %69 = add i32 %68, 18
  %70 = call ptr @proto_tree_add_item(ptr noundef %65, i32 noundef %66, ptr noundef %67, i32 noundef %69, i32 noundef 2, i32 noundef 0)
  %71 = load ptr, ptr %10, align 8
  %72 = load i32, ptr @hf_alcap_vbwt_size_fw, align 4
  %73 = load ptr, ptr %9, align 8
  %74 = load i32, ptr %11, align 4
  %75 = add i32 %74, 20
  %76 = call ptr @proto_tree_add_item(ptr noundef %71, i32 noundef %72, ptr noundef %73, i32 noundef %75, i32 noundef 1, i32 noundef 0)
  %77 = load ptr, ptr %10, align 8
  %78 = load i32, ptr @hf_alcap_vbwt_size_bw, align 4
  %79 = load ptr, ptr %9, align 8
  %80 = load i32, ptr %11, align 4
  %81 = add i32 %80, 21
  %82 = call ptr @proto_tree_add_item(ptr noundef %77, i32 noundef %78, ptr noundef %79, i32 noundef %81, i32 noundef 1, i32 noundef 0)
  store ptr null, ptr %7, align 8
  br label %83

83:                                               ; preds = %23, %16
  %84 = load ptr, ptr %7, align 8
  ret ptr %84
}